target datalayout = "e-m:e-p270:32:32-p271:32:32-p272:64:64-i64:64-i128:128-f80:128-n8:16:32:64-S128"
target triple = "x86_64-pc-linux-gnu"

%union.anon.0 = type { ptr }

@g_list_of_fields = internal global ptr null, align 8
@g_listv = internal global ptr null, align 8
@g_dup_fields = internal global ptr null, align 8
@.str.92 = private unnamed_addr constant [31 x i8] c"error in opening dataset \22%s\22\0A\00", align 1
@.str.93 = private unnamed_addr constant [37 x i8] c"error in getting dataset's datatype\0A\00", align 1
@.str.94 = private unnamed_addr constant [54 x i8] c"dataset should be compound type for <list_of_fields>\0A\00", align 1
@.str.95 = private unnamed_addr constant [39 x i8] c"error in duplicating g_list_of_fields\0A\00", align 1
@.str.96 = private unnamed_addr constant [44 x i8] c"error in allocating memory for H5LD_memb_t\0A\00", align 1
@.str.97 = private unnamed_addr constant [38 x i8] c"error in processing <list_of_fields>\0A\00", align 1

; Function Attrs: nounwind uwtable
define internal i32 @process_cmpd_fields(i64 noundef %0, ptr noundef %1) #0 {
  %3 = alloca i64, align 8
  %4 = alloca ptr, align 8
  %5 = alloca i64, align 8
  %6 = alloca i64, align 8
  %7 = alloca i64, align 8
  %8 = alloca i64, align 8
  %9 = alloca i32, align 4
  %10 = alloca i32, align 4
  %11 = alloca %union.anon.0, align 8
  %12 = alloca ptr, align 8
  store i64 %0, ptr %3, align 8, !tbaa !13
  store ptr %1, ptr %4, align 8, !tbaa !11
  call void @llvm.lifetime.start.p0(i64 8, ptr %5) #11
  store i64 -1, ptr %5, align 8, !tbaa !13
  call void @llvm.lifetime.start.p0(i64 8, ptr %6) #11
  store i64 -1, ptr %6, align 8, !tbaa !13
  call void @llvm.lifetime.start.p0(i64 8, ptr %7) #11
  store i64 -1, ptr %7, align 8, !tbaa !13
  call void @llvm.lifetime.start.p0(i64 8, ptr %8) #11
  call void @llvm.lifetime.start.p0(i64 4, ptr %9) #11
  store i32 0, ptr %9, align 4, !tbaa !4
  %13 = load i64, ptr %3, align 8, !tbaa !13
  %14 = load ptr, ptr %4, align 8, !tbaa !11
  %15 = call i64 @H5Dopen2(i64 noundef %13, ptr noundef %14, i64 noundef 0)
  store i64 %15, ptr %5, align 8, !tbaa !13
  %16 = icmp slt i64 %15, 0
  br i1 %16, label %17, label %19

17:                                               ; preds = %2
  %18 = load ptr, ptr %4, align 8, !tbaa !11
  call void (ptr, ...) @error_msg(ptr noundef @.str.92, ptr noundef %18)
  store i32 -1, ptr %9, align 4, !tbaa !4
  br label %55

19:                                               ; preds = %2
  %20 = load i64, ptr %5, align 8, !tbaa !13
  %21 = call i64 @H5Dget_type(i64 noundef %20)
  store i64 %21, ptr %6, align 8, !tbaa !13
  %22 = icmp slt i64 %21, 0
  br i1 %22, label %27, label %23

23:                                               ; preds = %19
  %24 = load i64, ptr %6, align 8, !tbaa !13
  %25 = call i64 @H5Tget_native_type(i64 noundef %24, i32 noundef 0)
  store i64 %25, ptr %7, align 8, !tbaa !13
  %26 = icmp slt i64 %25, 0
  br i1 %26, label %27, label %28

27:                                               ; preds = %23, %19
  call void (ptr, ...) @error_msg(ptr noundef @.str.93)
  store i32 -1, ptr %9, align 4, !tbaa !4
  br label %55

28:                                               ; preds = %23
  %29 = load i64, ptr %6, align 8, !tbaa !13
  %30 = call i32 @H5Tget_class(i64 noundef %29)
  %31 = icmp ne i32 %30, 6
  br i1 %31, label %32, label %33

32:                                               ; preds = %28
  call void (ptr, ...) @error_msg(ptr noundef @.str.94)
  store i32 -1, ptr %9, align 4, !tbaa !4
  br label %55

33:                                               ; preds = %28
  %34 = load ptr, ptr @g_list_of_fields, align 8, !tbaa !11
  %35 = call noalias ptr @strdup(ptr noundef %34) #11
  store ptr %35, ptr @g_dup_fields, align 8, !tbaa !11
  %36 = icmp eq ptr %35, null
  br i1 %36, label %37, label %38

37:                                               ; preds = %33
  call void (ptr, ...) @error_msg(ptr noundef @.str.95)
  store i32 -1, ptr %9, align 4, !tbaa !4
  br label %55

38:                                               ; preds = %33
  %39 = load ptr, ptr @g_list_of_fields, align 8, !tbaa !11
  %40 = call i64 @strlen(ptr noundef %39) #12
  %41 = udiv i64 %40, 2
  %42 = add i64 %41, 2
  store i64 %42, ptr %8, align 8, !tbaa !13
  %43 = load i64, ptr %8, align 8, !tbaa !13
  %44 = call noalias ptr @calloc(i64 noundef %43, i64 noundef 8) #15
  store ptr %44, ptr @g_listv, align 8, !tbaa !25
  %45 = icmp eq ptr %44, null
  br i1 %45, label %46, label %47

46:                                               ; preds = %38
  call void (ptr, ...) @error_msg(ptr noundef @.str.96)
  store i32 -1, ptr %9, align 4, !tbaa !4
  br label %55

47:                                               ; preds = %38
  %48 = load ptr, ptr @g_dup_fields, align 8, !tbaa !11
  %49 = load ptr, ptr @g_listv, align 8, !tbaa !25
  %50 = load i64, ptr %7, align 8, !tbaa !13
  %51 = call i32 @H5LD_construct_vector(ptr noundef %48, ptr noundef %49, i64 noundef %50)
  %52 = icmp slt i32 %51, 0
  br i1 %52, label %53, label %54

53:                                               ; preds = %47
  call void (ptr, ...) @error_msg(ptr noundef @.str.97)
  store i32 -1, ptr %9, align 4, !tbaa !4
  br label %55

54:                                               ; preds = %47
  br label %55

55:                                               ; preds = %54, %53, %46, %37, %32, %27, %17
  call void @llvm.lifetime.start.p0(i64 4, ptr %10) #11
  call void @llvm.lifetime.start.p0(i64 8, ptr %11) #11
  call void @llvm.lifetime.start.p0(i64 8, ptr %12) #11
  %56 = call i32 @H5Eauto_is_v2(i64 noundef 0, ptr noundef %10)
  %57 = load i32, ptr %10, align 4, !tbaa !4
  %58 = icmp ne i32 %57, 0
  br i1 %58, label %59, label %62

59:                                               ; preds = %55
  %60 = call i32 @H5Eget_auto2(i64 noundef 0, ptr noundef %11, ptr noundef %12)
  %61 = call i32 @H5Eset_auto2(i64 noundef 0, ptr noundef null, ptr noundef null)
  br label %65

62:                                               ; preds = %55
  %63 = call i32 @H5Eget_auto1(ptr noundef %11, ptr noundef %12)
  %64 = call i32 @H5Eset_auto1(ptr noundef null, ptr noundef null)
  br label %65

65:                                               ; preds = %62, %59
  %66 = load i64, ptr %6, align 8, !tbaa !13
  %67 = call i32 @H5Tclose(i64 noundef %66)
  %68 = load i64, ptr %7, align 8, !tbaa !13
  %69 = call i32 @H5Tclose(i64 noundef %68)
  %70 = load i64, ptr %5, align 8, !tbaa !13
  %71 = call i32 @H5Dclose(i64 noundef %70)
  %72 = load i32, ptr %10, align 4, !tbaa !4
  %73 = icmp ne i32 %72, 0
  br i1 %73, label %74, label %78

74:                                               ; preds = %65
  %75 = load ptr, ptr %11, align 8, !tbaa !19
  %76 = load ptr, ptr %12, align 8, !tbaa !29
  %77 = call i32 @H5Eset_auto2(i64 noundef 0, ptr noundef %75, ptr noundef %76)
  br label %82

78:                                               ; preds = %65
  %79 = load ptr, ptr %11, align 8, !tbaa !19
  %80 = load ptr, ptr %12, align 8, !tbaa !29
  %81 = call i32 @H5Eset_auto1(ptr noundef %79, ptr noundef %80)
  br label %82

82:                                               ; preds = %78, %74
  call void @llvm.lifetime.end.p0(i64 8, ptr %12) #11
  call void @llvm.lifetime.end.p0(i64 8, ptr %11) #11
  call void @llvm.lifetime.end.p0(i64 4, ptr %10) #11
  %83 = load i32, ptr %9, align 4, !tbaa !4
  call void @llvm.lifetime.end.p0(i64 4, ptr %9) #11
  call void @llvm.lifetime.end.p0(i64 8, ptr %8) #11
  call void @llvm.lifetime.end.p0(i64 8, ptr %7) #11
  call void @llvm.lifetime.end.p0(i64 8, ptr %6) #11
  call void @llvm.lifetime.end.p0(i64 8, ptr %5) #11
  ret i32 %83
}