; Function Attrs: nounwind uwtable
define internal fastcc range(i32 -1, 1) i32 @process_cmpd_fields(i64 noundef range(i64 0, -9223372036854775808) %0, ptr noundef nonnull %1) unnamed_addr #9 {
  %3 = alloca i32, align 4
  %4 = alloca %union.anon.0, align 8
  %5 = alloca ptr, align 8
  %6 = tail call i64 @H5Dopen2(i64 noundef %0, ptr noundef nonnull %1, i64 noundef 0) #20
  %7 = icmp slt i64 %6, 0
  br i1 %7, label %8, label %9

8:                                                ; preds = %2
  tail call void (ptr, ...) @error_msg(ptr noundef nonnull @.str.92, ptr noundef nonnull %1) #20
  br label %35

9:                                                ; preds = %2
  %10 = tail call i64 @H5Dget_type(i64 noundef %6) #20
  %11 = icmp slt i64 %10, 0
  br i1 %11, label %15, label %12

12:                                               ; preds = %9
  %13 = tail call i64 @H5Tget_native_type(i64 noundef %10, i32 noundef 0) #20
  %14 = icmp slt i64 %13, 0
  br i1 %14, label %15, label %16

15:                                               ; preds = %12, %9
  %.1 = phi i64 [ -1, %9 ], [ %13, %12 ]
  tail call void (ptr, ...) @error_msg(ptr noundef nonnull @.str.93) #20
  br label %35

16:                                               ; preds = %12
  %17 = tail call i32 @H5Tget_class(i64 noundef %10) #20
  %.not = icmp eq i32 %17, 6
  br i1 %.not, label %19, label %18

18:                                               ; preds = %16
  tail call void (ptr, ...) @error_msg(ptr noundef nonnull @.str.94) #20
  br label %35

19:                                               ; preds = %16
  %20 = load ptr, ptr @g_list_of_fields, align 8, !tbaa !4
  %21 = tail call noalias ptr @strdup(ptr noundef %20) #20
  store ptr %21, ptr @g_dup_fields, align 8, !tbaa !4
  %22 = icmp eq ptr %21, null
  br i1 %22, label %23, label %24

23:                                               ; preds = %19
  tail call void (ptr, ...) @error_msg(ptr noundef nonnull @.str.95) #20
  br label %35

24:                                               ; preds = %19
  %25 = tail call i64 @strlen(ptr noundef nonnull dereferenceable(1) %20) #23
  %26 = lshr i64 %25, 1
  %27 = add nuw i64 %26, 2
  %28 = tail call noalias ptr @calloc(i64 noundef %27, i64 noundef 8) #25
  store ptr %28, ptr @g_listv, align 8, !tbaa !28
  %29 = icmp eq ptr %28, null
  br i1 %29, label %30, label %31

30:                                               ; preds = %24
  tail call void (ptr, ...) @error_msg(ptr noundef nonnull @.str.96) #20
  br label %35

31:                                               ; preds = %24
  %32 = tail call i32 @H5LD_construct_vector(ptr noundef nonnull %21, ptr noundef nonnull %28, i64 noundef %13) #20
  %33 = icmp slt i32 %32, 0
  br i1 %33, label %34, label %35

34:                                               ; preds = %31
  tail call void (ptr, ...) @error_msg(ptr noundef nonnull @.str.97) #20
  br label %35

35:                                               ; preds = %31, %34, %30, %23, %18, %15, %8
  %.012 = phi i64 [ -1, %8 ], [ %10, %15 ], [ %10, %18 ], [ %10, %23 ], [ %10, %30 ], [ %10, %34 ], [ %10, %31 ]
  %.011 = phi i64 [ -1, %8 ], [ %.1, %15 ], [ %13, %18 ], [ %13, %23 ], [ %13, %30 ], [ %13, %34 ], [ %13, %31 ]
  %.0 = phi i32 [ -1, %8 ], [ -1, %15 ], [ -1, %18 ], [ -1, %23 ], [ -1, %30 ], [ -1, %34 ], [ 0, %31 ]
  call void @llvm.lifetime.start.p0(i64 4, ptr nonnull %3) #20
  call void @llvm.lifetime.start.p0(i64 8, ptr nonnull %4) #20
  call void @llvm.lifetime.start.p0(i64 8, ptr nonnull %5) #20
  %36 = call i32 @H5Eauto_is_v2(i64 noundef 0, ptr noundef nonnull %3) #20
  %37 = load i32, ptr %3, align 4, !tbaa !9
  %.not18 = icmp eq i32 %37, 0
  br i1 %.not18, label %41, label %38

38:                                               ; preds = %35
  %39 = call i32 @H5Eget_auto2(i64 noundef 0, ptr noundef nonnull %4, ptr noundef nonnull %5) #20
  %40 = call i32 @H5Eset_auto2(i64 noundef 0, ptr noundef null, ptr noundef null) #20
  br label %44

41:                                               ; preds = %35
  %42 = call i32 @H5Eget_auto1(ptr noundef nonnull %4, ptr noundef nonnull %5) #20
  %43 = call i32 @H5Eset_auto1(ptr noundef null, ptr noundef null) #20
  br label %44

44:                                               ; preds = %41, %38
  %45 = call i32 @H5Tclose(i64 noundef %.012) #20
  %46 = call i32 @H5Tclose(i64 noundef %.011) #20
  %47 = call i32 @H5Dclose(i64 noundef %6) #20
  %48 = load i32, ptr %3, align 4, !tbaa !9
  %.not19 = icmp eq i32 %48, 0
  %49 = load ptr, ptr %4, align 8, !tbaa !20
  %50 = load ptr, ptr %5, align 8, !tbaa !27
  br i1 %.not19, label %53, label %51

51:                                               ; preds = %44
  %52 = call i32 @H5Eset_auto2(i64 noundef 0, ptr noundef %49, ptr noundef %50) #20
  br label %55

53:                                               ; preds = %44
  %54 = call i32 @H5Eset_auto1(ptr noundef %49, ptr noundef %50) #20
  br label %55

55:                                               ; preds = %53, %51
  call void @llvm.lifetime.end.p0(i64 8, ptr nonnull %5) #20
  call void @llvm.lifetime.end.p0(i64 8, ptr nonnull %4) #20
  call void @llvm.lifetime.end.p0(i64 4, ptr nonnull %3) #20
  ret i32 %.0
}